; Function Attrs: nounwind uwtable
define range(i32 -1, 1) i32 @H5F_get_obj_count(ptr noundef %0, i32 noundef %1, i1 noundef zeroext %2, ptr nocapture noundef writeonly %3) local_unnamed_addr #0 {
  %5 = tail call fastcc i32 @H5F__get_objects(ptr noundef %0, i32 noundef %1, i64 noundef 0, ptr noundef null, i1 noundef zeroext %2, ptr noundef %3)
  %6 = icmp slt i32 %5, 0
  br i1 %6, label %7, label %11

7:                                                ; preds = %4
  %8 = load i64, ptr @H5E_FILE_g, align 8
  %9 = load i64, ptr @H5E_BADITER_g, align 8
  %10 = tail call i32 (ptr, ptr, i32, i64, i64, ptr, ...) @H5E_printf_stack(ptr noundef nonnull @.str.2, ptr noundef nonnull @__func__.H5F_get_obj_count, i32 noundef 497, i64 noundef %8, i64 noundef %9, ptr noundef nonnull @.str.63) #22
  br label %11

11:                                               ; preds = %4, %7
  %.0 = phi i32 [ -1, %7 ], [ 0, %4 ]
  ret i32 %.0
}